target datalayout = "e-m:e-p270:32:32-p271:32:32-p272:64:64-i64:64-i128:128-f80:128-n8:16:32:64-S128"
target triple = "x86_64-pc-linux-gnu"

%struct.X509_algor_st = type { ptr, ptr }
%struct.PBMAC1PARAM = type { ptr, ptr }

@.str = private unnamed_addr constant [36 x i8] c"../openssl/crypto/pkcs12/p12_mutl.c\00", align 1
@__func__.PBMAC1_get1_pbkdf2_param = private unnamed_addr constant [25 x i8] c"PBMAC1_get1_pbkdf2_param\00", align 1

; Function Attrs: nounwind uwtable
define ptr @PBMAC1_get1_pbkdf2_param(ptr noundef %0) #0 {
  %2 = alloca ptr, align 8
  %3 = alloca ptr, align 8
  %4 = alloca ptr, align 8
  %5 = alloca ptr, align 8
  %6 = alloca ptr, align 8
  %7 = alloca i32, align 4
  store ptr %0, ptr %3, align 8, !tbaa !23
  call void @llvm.lifetime.start.p0(i64 8, ptr %4) #4
  store ptr null, ptr %4, align 8, !tbaa !25
  call void @llvm.lifetime.start.p0(i64 8, ptr %5) #4
  store ptr null, ptr %5, align 8, !tbaa !26
  call void @llvm.lifetime.start.p0(i64 8, ptr %6) #4
  %8 = call ptr @PBMAC1PARAM_it()
  %9 = load ptr, ptr %3, align 8, !tbaa !23
  %10 = getelementptr inbounds nuw %struct.X509_algor_st, ptr %9, i32 0, i32 1
  %11 = load ptr, ptr %10, align 8, !tbaa !28
  %12 = call ptr @ASN1_TYPE_unpack_sequence(ptr noundef %8, ptr noundef %11)
  store ptr %12, ptr %4, align 8, !tbaa !25
  %13 = load ptr, ptr %4, align 8, !tbaa !25
  %14 = icmp eq ptr %13, null
  br i1 %14, label %15, label %16

15:                                               ; preds = %1
  call void @ERR_new()
  call void @ERR_set_debug(ptr noundef @.str, i32 noundef 90, ptr noundef @__func__.PBMAC1_get1_pbkdf2_param)
  call void (i32, i32, ptr, ...) @ERR_set_error(i32 noundef 35, i32 noundef 524550, ptr noundef null)
  store ptr null, ptr %2, align 8
  store i32 1, ptr %7, align 4
  br label %35

16:                                               ; preds = %1
  %17 = load ptr, ptr %4, align 8, !tbaa !25
  %18 = getelementptr inbounds nuw %struct.PBMAC1PARAM, ptr %17, i32 0, i32 0
  %19 = load ptr, ptr %18, align 8, !tbaa !32
  call void @X509_ALGOR_get0(ptr noundef %6, ptr noundef null, ptr noundef null, ptr noundef %19)
  %20 = load ptr, ptr %6, align 8, !tbaa !34
  %21 = call i32 @OBJ_obj2nid(ptr noundef %20)
  %22 = icmp ne i32 %21, 69
  br i1 %22, label %23, label %25

23:                                               ; preds = %16
  call void @ERR_new()
  call void @ERR_set_debug(ptr noundef @.str, i32 noundef 96, ptr noundef @__func__.PBMAC1_get1_pbkdf2_param)
  call void (i32, i32, ptr, ...) @ERR_set_error(i32 noundef 35, i32 noundef 524550, ptr noundef null)
  %24 = load ptr, ptr %4, align 8, !tbaa !25
  call void @PBMAC1PARAM_free(ptr noundef %24)
  store ptr null, ptr %2, align 8
  store i32 1, ptr %7, align 4
  br label %35

25:                                               ; preds = %16
  %26 = call ptr @PBKDF2PARAM_it()
  %27 = load ptr, ptr %4, align 8, !tbaa !25
  %28 = getelementptr inbounds nuw %struct.PBMAC1PARAM, ptr %27, i32 0, i32 0
  %29 = load ptr, ptr %28, align 8, !tbaa !32
  %30 = getelementptr inbounds nuw %struct.X509_algor_st, ptr %29, i32 0, i32 1
  %31 = load ptr, ptr %30, align 8, !tbaa !28
  %32 = call ptr @ASN1_TYPE_unpack_sequence(ptr noundef %26, ptr noundef %31)
  store ptr %32, ptr %5, align 8, !tbaa !26
  %33 = load ptr, ptr %4, align 8, !tbaa !25
  call void @PBMAC1PARAM_free(ptr noundef %33)
  %34 = load ptr, ptr %5, align 8, !tbaa !26
  store ptr %34, ptr %2, align 8
  store i32 1, ptr %7, align 4
  br label %35

35:                                               ; preds = %25, %23, %15
  call void @llvm.lifetime.end.p0(i64 8, ptr %6) #4
  call void @llvm.lifetime.end.p0(i64 8, ptr %5) #4
  call void @llvm.lifetime.end.p0(i64 8, ptr %4) #4
  %36 = load ptr, ptr %2, align 8
  ret ptr %36
}