; Function Attrs: nounwind uwtable
define ptr @PBMAC1_get1_pbkdf2_param(ptr noundef readonly captures(none) %0) local_unnamed_addr #1 {
  %2 = alloca ptr, align 8
  call void @llvm.lifetime.start.p0(i64 8, ptr nonnull %2) #5
  %3 = tail call ptr @PBMAC1PARAM_it() #5
  %4 = getelementptr inbounds nuw i8, ptr %0, i64 8
  %5 = load ptr, ptr %4, align 8, !tbaa !19
  %6 = tail call ptr @ASN1_TYPE_unpack_sequence(ptr noundef %3, ptr noundef %5) #5
  %7 = icmp eq ptr %6, null
  br i1 %7, label %8, label %9

8:                                                ; preds = %1
  tail call void @ERR_new() #5
  tail call void @ERR_set_debug(ptr noundef nonnull @.str, i32 noundef 90, ptr noundef nonnull @__func__.PBMAC1_get1_pbkdf2_param) #5
  tail call void (i32, i32, ptr, ...) @ERR_set_error(i32 noundef 35, i32 noundef 524550, ptr noundef null) #5
  br label %20

9:                                                ; preds = %1
  %10 = load ptr, ptr %6, align 8, !tbaa !23
  call void @X509_ALGOR_get0(ptr noundef nonnull %2, ptr noundef null, ptr noundef null, ptr noundef %10) #5
  %11 = load ptr, ptr %2, align 8, !tbaa !25
  %12 = call i32 @OBJ_obj2nid(ptr noundef %11) #5
  %.not = icmp eq i32 %12, 69
  br i1 %.not, label %14, label %13

13:                                               ; preds = %9
  call void @ERR_new() #5
  call void @ERR_set_debug(ptr noundef nonnull @.str, i32 noundef 96, ptr noundef nonnull @__func__.PBMAC1_get1_pbkdf2_param) #5
  call void (i32, i32, ptr, ...) @ERR_set_error(i32 noundef 35, i32 noundef 524550, ptr noundef null) #5
  call void @PBMAC1PARAM_free(ptr noundef nonnull %6) #5
  br label %20

14:                                               ; preds = %9
  %15 = call ptr @PBKDF2PARAM_it() #5
  %16 = load ptr, ptr %6, align 8, !tbaa !23
  %17 = getelementptr inbounds nuw i8, ptr %16, i64 8
  %18 = load ptr, ptr %17, align 8, !tbaa !19
  %19 = call ptr @ASN1_TYPE_unpack_sequence(ptr noundef %15, ptr noundef %18) #5
  call void @PBMAC1PARAM_free(ptr noundef nonnull %6) #5
  br label %20

20:                                               ; preds = %14, %13, %8
  %.0 = phi ptr [ null, %8 ], [ null, %13 ], [ %19, %14 ]
  call void @llvm.lifetime.end.p0(i64 8, ptr nonnull %2) #5
  ret ptr %.0
}